target datalayout = "e-m:e-p270:32:32-p271:32:32-p272:64:64-i64:64-i128:128-f80:128-n8:16:32:64-S128"
target triple = "x86_64-pc-linux-gnu"

@oname_dst = internal global ptr null, align 8
@str_flag = internal global ptr null, align 8
@fname_src = internal global ptr null, align 8
@fname_dst = internal global ptr null, align 8
@oname_src = internal global ptr null, align 8

; Function Attrs: nounwind uwtable
define internal void @leave(i32 noundef %0) #0 {
  %2 = alloca i32, align 4
  store i32 %0, ptr %2, align 4, !tbaa !4
  %3 = load ptr, ptr @fname_src, align 8, !tbaa !13
  %4 = icmp ne ptr %3, null
  br i1 %4, label %5, label %7

5:                                                ; preds = %1
  %6 = load ptr, ptr @fname_src, align 8, !tbaa !13
  call void @free(ptr noundef %6) #9
  br label %7

7:                                                ; preds = %5, %1
  %8 = load ptr, ptr @fname_dst, align 8, !tbaa !13
  %9 = icmp ne ptr %8, null
  br i1 %9, label %10, label %12

10:                                               ; preds = %7
  %11 = load ptr, ptr @fname_dst, align 8, !tbaa !13
  call void @free(ptr noundef %11) #9
  br label %12

12:                                               ; preds = %10, %7
  %13 = load ptr, ptr @oname_dst, align 8, !tbaa !13
  %14 = icmp ne ptr %13, null
  br i1 %14, label %15, label %17

15:                                               ; preds = %12
  %16 = load ptr, ptr @oname_dst, align 8, !tbaa !13
  call void @free(ptr noundef %16) #9
  br label %17

17:                                               ; preds = %15, %12
  %18 = load ptr, ptr @oname_src, align 8, !tbaa !13
  %19 = icmp ne ptr %18, null
  br i1 %19, label %20, label %22

20:                                               ; preds = %17
  %21 = load ptr, ptr @oname_src, align 8, !tbaa !13
  call void @free(ptr noundef %21) #9
  br label %22

22:                                               ; preds = %20, %17
  %23 = load ptr, ptr @str_flag, align 8, !tbaa !13
  %24 = icmp ne ptr %23, null
  br i1 %24, label %25, label %27

25:                                               ; preds = %22
  %26 = load ptr, ptr @str_flag, align 8, !tbaa !13
  call void @free(ptr noundef %26) #9
  br label %27

27:                                               ; preds = %25, %22
  call void @h5tools_close()
  %28 = load i32, ptr %2, align 4, !tbaa !4
  call void @exit(i32 noundef %28) #12
  unreachable
}