; Function Attrs: noreturn nounwind uwtable
define internal fastcc void @leave(i32 noundef range(i32 0, 2) %0) unnamed_addr #0 {
  %2 = load ptr, ptr @fname_src, align 8, !tbaa !4
  %.not = icmp eq ptr %2, null
  br i1 %.not, label %4, label %3

3:                                                ; preds = %1
  tail call void @free(ptr noundef nonnull %2) #14
  br label %4

4:                                                ; preds = %3, %1
  %5 = load ptr, ptr @fname_dst, align 8, !tbaa !4
  %.not5 = icmp eq ptr %5, null
  br i1 %.not5, label %7, label %6

6:                                                ; preds = %4
  tail call void @free(ptr noundef nonnull %5) #14
  br label %7

7:                                                ; preds = %6, %4
  %8 = load ptr, ptr @oname_dst, align 8, !tbaa !4
  %.not6 = icmp eq ptr %8, null
  br i1 %.not6, label %10, label %9

9:                                                ; preds = %7
  tail call void @free(ptr noundef nonnull %8) #14
  br label %10

10:                                               ; preds = %9, %7
  %11 = load ptr, ptr @oname_src, align 8, !tbaa !4
  %.not7 = icmp eq ptr %11, null
  br i1 %.not7, label %13, label %12

12:                                               ; preds = %10
  tail call void @free(ptr noundef nonnull %11) #14
  br label %13

13:                                               ; preds = %12, %10
  %14 = load ptr, ptr @str_flag, align 8, !tbaa !4
  %.not8 = icmp eq ptr %14, null
  br i1 %.not8, label %16, label %15

15:                                               ; preds = %13
  tail call void @free(ptr noundef nonnull %14) #14
  br label %16

16:                                               ; preds = %15, %13
  tail call void @h5tools_close() #14
  tail call void @exit(i32 noundef %0) #18
  unreachable
}